opt subtitle "Microchip Technology Omniscient Code Generator (Lite mode) build 59893"

opt pagewidth 120

	opt lm

	processor	16F877A
clrc	macro
	bcf	3,0
	endm
clrz	macro
	bcf	3,2
	endm
setc	macro
	bsf	3,0
	endm
setz	macro
	bsf	3,2
	endm
skipc	macro
	btfss	3,0
	endm
skipz	macro
	btfss	3,2
	endm
skipnc	macro
	btfsc	3,0
	endm
skipnz	macro
	btfsc	3,2
	endm
indf	equ	0
indf0	equ	0
pc	equ	2
pcl	equ	2
status	equ	3
fsr	equ	4
fsr0	equ	4
c	equ	1
z	equ	0
pclath	equ	10
# 49 "C:\Program Files (x86)\Microchip\xc8\v1.33\include\pic16f877a.h"
INDF equ 00h ;# 
# 55 "C:\Program Files (x86)\Microchip\xc8\v1.33\include\pic16f877a.h"
TMR0 equ 01h ;# 
# 61 "C:\Program Files (x86)\Microchip\xc8\v1.33\include\pic16f877a.h"
PCL equ 02h ;# 
# 67 "C:\Program Files (x86)\Microchip\xc8\v1.33\include\pic16f877a.h"
STATUS equ 03h ;# 
# 154 "C:\Program Files (x86)\Microchip\xc8\v1.33\include\pic16f877a.h"
FSR equ 04h ;# 
# 160 "C:\Program Files (x86)\Microchip\xc8\v1.33\include\pic16f877a.h"
PORTA equ 05h ;# 
# 209 "C:\Program Files (x86)\Microchip\xc8\v1.33\include\pic16f877a.h"
PORTB equ 06h ;# 
# 270 "C:\Program Files (x86)\Microchip\xc8\v1.33\include\pic16f877a.h"
PORTC equ 07h ;# 
# 331 "C:\Program Files (x86)\Microchip\xc8\v1.33\include\pic16f877a.h"
PORTD equ 08h ;# 
# 392 "C:\Program Files (x86)\Microchip\xc8\v1.33\include\pic16f877a.h"
PORTE equ 09h ;# 
# 423 "C:\Program Files (x86)\Microchip\xc8\v1.33\include\pic16f877a.h"
PCLATH equ 0Ah ;# 
# 442 "C:\Program Files (x86)\Microchip\xc8\v1.33\include\pic16f877a.h"
INTCON equ 0Bh ;# 
# 519 "C:\Program Files (x86)\Microchip\xc8\v1.33\include\pic16f877a.h"
PIR1 equ 0Ch ;# 
# 580 "C:\Program Files (x86)\Microchip\xc8\v1.33\include\pic16f877a.h"
PIR2 equ 0Dh ;# 
# 619 "C:\Program Files (x86)\Microchip\xc8\v1.33\include\pic16f877a.h"
TMR1 equ 0Eh ;# 
# 625 "C:\Program Files (x86)\Microchip\xc8\v1.33\include\pic16f877a.h"
TMR1L equ 0Eh ;# 
# 631 "C:\Program Files (x86)\Microchip\xc8\v1.33\include\pic16f877a.h"
TMR1H equ 0Fh ;# 
# 637 "C:\Program Files (x86)\Microchip\xc8\v1.33\include\pic16f877a.h"
T1CON equ 010h ;# 
# 711 "C:\Program Files (x86)\Microchip\xc8\v1.33\include\pic16f877a.h"
TMR2 equ 011h ;# 
# 717 "C:\Program Files (x86)\Microchip\xc8\v1.33\include\pic16f877a.h"
T2CON equ 012h ;# 
# 787 "C:\Program Files (x86)\Microchip\xc8\v1.33\include\pic16f877a.h"
SSPBUF equ 013h ;# 
# 793 "C:\Program Files (x86)\Microchip\xc8\v1.33\include\pic16f877a.h"
SSPCON equ 014h ;# 
# 862 "C:\Program Files (x86)\Microchip\xc8\v1.33\include\pic16f877a.h"
CCPR1 equ 015h ;# 
# 868 "C:\Program Files (x86)\Microchip\xc8\v1.33\include\pic16f877a.h"
CCPR1L equ 015h ;# 
# 874 "C:\Program Files (x86)\Microchip\xc8\v1.33\include\pic16f877a.h"
CCPR1H equ 016h ;# 
# 880 "C:\Program Files (x86)\Microchip\xc8\v1.33\include\pic16f877a.h"
CCP1CON equ 017h ;# 
# 937 "C:\Program Files (x86)\Microchip\xc8\v1.33\include\pic16f877a.h"
RCSTA equ 018h ;# 
# 1031 "C:\Program Files (x86)\Microchip\xc8\v1.33\include\pic16f877a.h"
TXREG equ 019h ;# 
# 1037 "C:\Program Files (x86)\Microchip\xc8\v1.33\include\pic16f877a.h"
RCREG equ 01Ah ;# 
# 1043 "C:\Program Files (x86)\Microchip\xc8\v1.33\include\pic16f877a.h"
CCPR2 equ 01Bh ;# 
# 1049 "C:\Program Files (x86)\Microchip\xc8\v1.33\include\pic16f877a.h"
CCPR2L equ 01Bh ;# 
# 1055 "C:\Program Files (x86)\Microchip\xc8\v1.33\include\pic16f877a.h"
CCPR2H equ 01Ch ;# 
# 1061 "C:\Program Files (x86)\Microchip\xc8\v1.33\include\pic16f877a.h"
CCP2CON equ 01Dh ;# 
# 1118 "C:\Program Files (x86)\Microchip\xc8\v1.33\include\pic16f877a.h"
ADRESH equ 01Eh ;# 
# 1124 "C:\Program Files (x86)\Microchip\xc8\v1.33\include\pic16f877a.h"
ADCON0 equ 01Fh ;# 
# 1219 "C:\Program Files (x86)\Microchip\xc8\v1.33\include\pic16f877a.h"
OPTION_REG equ 081h ;# 
# 1288 "C:\Program Files (x86)\Microchip\xc8\v1.33\include\pic16f877a.h"
TRISA equ 085h ;# 
# 1337 "C:\Program Files (x86)\Microchip\xc8\v1.33\include\pic16f877a.h"
TRISB equ 086h ;# 
# 1398 "C:\Program Files (x86)\Microchip\xc8\v1.33\include\pic16f877a.h"
TRISC equ 087h ;# 
# 1459 "C:\Program Files (x86)\Microchip\xc8\v1.33\include\pic16f877a.h"
TRISD equ 088h ;# 
# 1520 "C:\Program Files (x86)\Microchip\xc8\v1.33\include\pic16f877a.h"
TRISE equ 089h ;# 
# 1576 "C:\Program Files (x86)\Microchip\xc8\v1.33\include\pic16f877a.h"
PIE1 equ 08Ch ;# 
# 1637 "C:\Program Files (x86)\Microchip\xc8\v1.33\include\pic16f877a.h"
PIE2 equ 08Dh ;# 
# 1676 "C:\Program Files (x86)\Microchip\xc8\v1.33\include\pic16f877a.h"
PCON equ 08Eh ;# 
# 1709 "C:\Program Files (x86)\Microchip\xc8\v1.33\include\pic16f877a.h"
SSPCON2 equ 091h ;# 
# 1770 "C:\Program Files (x86)\Microchip\xc8\v1.33\include\pic16f877a.h"
PR2 equ 092h ;# 
# 1776 "C:\Program Files (x86)\Microchip\xc8\v1.33\include\pic16f877a.h"
SSPADD equ 093h ;# 
# 1782 "C:\Program Files (x86)\Microchip\xc8\v1.33\include\pic16f877a.h"
SSPSTAT equ 094h ;# 
# 1950 "C:\Program Files (x86)\Microchip\xc8\v1.33\include\pic16f877a.h"
TXSTA equ 098h ;# 
# 2030 "C:\Program Files (x86)\Microchip\xc8\v1.33\include\pic16f877a.h"
SPBRG equ 099h ;# 
# 2036 "C:\Program Files (x86)\Microchip\xc8\v1.33\include\pic16f877a.h"
CMCON equ 09Ch ;# 
# 2105 "C:\Program Files (x86)\Microchip\xc8\v1.33\include\pic16f877a.h"
CVRCON equ 09Dh ;# 
# 2169 "C:\Program Files (x86)\Microchip\xc8\v1.33\include\pic16f877a.h"
ADRESL equ 09Eh ;# 
# 2175 "C:\Program Files (x86)\Microchip\xc8\v1.33\include\pic16f877a.h"
ADCON1 equ 09Fh ;# 
# 2233 "C:\Program Files (x86)\Microchip\xc8\v1.33\include\pic16f877a.h"
EEDATA equ 010Ch ;# 
# 2239 "C:\Program Files (x86)\Microchip\xc8\v1.33\include\pic16f877a.h"
EEADR equ 010Dh ;# 
# 2245 "C:\Program Files (x86)\Microchip\xc8\v1.33\include\pic16f877a.h"
EEDATH equ 010Eh ;# 
# 2251 "C:\Program Files (x86)\Microchip\xc8\v1.33\include\pic16f877a.h"
EEADRH equ 010Fh ;# 
# 2257 "C:\Program Files (x86)\Microchip\xc8\v1.33\include\pic16f877a.h"
EECON1 equ 018Ch ;# 
# 2301 "C:\Program Files (x86)\Microchip\xc8\v1.33\include\pic16f877a.h"
EECON2 equ 018Dh ;# 
	FNROOT	_main
	FNCALL	intlevel1,_ISR
	global	intlevel1
	FNROOT	intlevel1
	global	_counter
	global	_counting_state
	global	_timer_ticks
	global	_PORTC
_PORTC	set	0x7
	global	_GIE
_GIE	set	0x5F
	global	_INTE
_INTE	set	0x5C
	global	_INTF
_INTF	set	0x59
	global	_T0IE
_T0IE	set	0x5D
	global	_T0IF
_T0IF	set	0x5A
	global	_OPTION_REG
_OPTION_REG	set	0x81
	global	_TRISB
_TRISB	set	0x86
	global	_TRISC
_TRISC	set	0x87
psect	text0,local,class=CODE,delta=2,merge=1
; #config settings
	file	"C:\Program Files (x86)\Microchip\xc8\v1.33\include\pic16f877a.h"
	line	2761
global __ptext0
__ptext0:	;psect for function _ISR
global __CFG_WDTE$OFF
__CFG_WDTE$OFF equ 0x0
global __CFG_PWRTE$ON
__CFG_PWRTE$ON equ 0x0
global __CFG_CP$OFF
__CFG_CP$OFF equ 0x0
global __CFG_BOREN$ON
__CFG_BOREN$ON equ 0x0
global __CFG_LVP$OFF
__CFG_LVP$OFF equ 0x0
global __CFG_CPD$OFF
__CFG_CPD$OFF equ 0x0
global __CFG_WRT$OFF
__CFG_WRT$OFF equ 0x0
global __CFG_FOSC$XT
__CFG_FOSC$XT equ 0x0
	file	"PA3.as"
	line	#
psect cinit,class=CODE,delta=2
global start_initialization
start_initialization:

global __initialization
__initialization:
psect	bssCOMMON,class=COMMON,space=1,noexec
global __pbssCOMMON
__pbssCOMMON:
_counter:
       ds      1

_counting_state:
       ds      1

_timer_ticks:
       ds      1

	line	#
; Clear objects allocated to COMMON
psect cinit,class=CODE,delta=2,merge=1
	clrf	((__pbssCOMMON)+0)&07Fh
	clrf	((__pbssCOMMON)+1)&07Fh
	clrf	((__pbssCOMMON)+2)&07Fh
psect cinit,class=CODE,delta=2,merge=1
global end_of_initialization,__end_of__initialization

;End of C runtime variable initialization code

end_of_initialization:
__end_of__initialization:clrf status
ljmp _main	;jump to C main() function
psect	cstackCOMMON,class=COMMON,space=1,noexec
global __pcstackCOMMON
__pcstackCOMMON:
?_ISR:	; 0 bytes @ 0x0
??_ISR:	; 0 bytes @ 0x0
?_main:	; 0 bytes @ 0x0
	ds	5
??_main:	; 0 bytes @ 0x5
	ds	1
;!
;!Data Sizes:
;!    Strings     0
;!    Constant    0
;!    Data        0
;!    BSS         3
;!    Persistent  0
;!    Stack       0
;!
;!Auto Spaces:
;!    Space          Size  Autos    Used
;!    COMMON           14      6       9
;!    BANK0            80      0       0
;!    BANK1            80      0       0
;!    BANK3            96      0       0
;!    BANK2            96      0       0

;!
;!Pointer List with Targets:
;!
;!    None.


;!
;!Critical Paths under _main in COMMON
;!
;!    None.
;!
;!Critical Paths under _ISR in COMMON
;!
;!    None.
;!
;!Critical Paths under _main in BANK0
;!
;!    None.
;!
;!Critical Paths under _ISR in BANK0
;!
;!    None.
;!
;!Critical Paths under _main in BANK1
;!
;!    None.
;!
;!Critical Paths under _ISR in BANK1
;!
;!    None.
;!
;!Critical Paths under _main in BANK3
;!
;!    None.
;!
;!Critical Paths under _ISR in BANK3
;!
;!    None.
;!
;!Critical Paths under _main in BANK2
;!
;!    None.
;!
;!Critical Paths under _ISR in BANK2
;!
;!    None.

;;
;;Main: autosize = 0, tempsize = 1, incstack = 0, save=0
;;

;!
;!Call Graph Tables:
;!
;! ---------------------------------------------------------------------------------
;! (Depth) Function   	        Calls       Base Space   Used Autos Params    Refs
;! ---------------------------------------------------------------------------------
;! (0) _main                                                 1     1      0       0
;!                                              5 COMMON     1     1      0
;! ---------------------------------------------------------------------------------
;! Estimated maximum stack depth 0
;! ---------------------------------------------------------------------------------
;! (Depth) Function   	        Calls       Base Space   Used Autos Params    Refs
;! ---------------------------------------------------------------------------------
;! (1) _ISR                                                  5     5      0       0
;!                                              0 COMMON     5     5      0
;! ---------------------------------------------------------------------------------
;! Estimated maximum stack depth 1
;! ---------------------------------------------------------------------------------
;!
;! Call Graph Graphs:
;!
;! _main (ROOT)
;!
;! _ISR (ROOT)
;!

;! Address spaces:

;!Name               Size   Autos  Total    Cost      Usage
;!BITCOMMON            E      0       0       0        0.0%
;!EEDATA             100      0       0       0        0.0%
;!NULL                 0      0       0       0        0.0%
;!CODE                 0      0       0       0        0.0%
;!COMMON               E      6       9       1       64.3%
;!BITSFR0              0      0       0       1        0.0%
;!SFR0                 0      0       0       1        0.0%
;!BITSFR1              0      0       0       2        0.0%
;!SFR1                 0      0       0       2        0.0%
;!STACK                0      0       0       2        0.0%
;!ABS                  0      0       9       3        0.0%
;!BITBANK0            50      0       0       4        0.0%
;!BITSFR3              0      0       0       4        0.0%
;!SFR3                 0      0       0       4        0.0%
;!BANK0               50      0       0       5        0.0%
;!BITSFR2              0      0       0       5        0.0%
;!SFR2                 0      0       0       5        0.0%
;!BITBANK1            50      0       0       6        0.0%
;!BANK1               50      0       0       7        0.0%
;!BITBANK3            60      0       0       8        0.0%
;!BANK3               60      0       0       9        0.0%
;!BITBANK2            60      0       0      10        0.0%
;!BANK2               60      0       0      11        0.0%
;!DATA                 0      0       9      12        0.0%

	global	_main

;; *************** function _main *****************
;; Defined at:
;;		line 33 in file "C:\Users\ASUS\Downloads\Embedded\LE3-1.c"
;; Parameters:    Size  Location     Type
;;		None
;; Auto vars:     Size  Location     Type
;;		None
;; Return value:  Size  Location     Type
;;		None               void
;; Registers used:
;;		wreg, status,2, status,0
;; Tracked objects:
;;		On entry : 17F/0
;;		On exit  : 0/0
;;		Unchanged: 0/0
;; Data sizes:     COMMON   BANK0   BANK1   BANK3   BANK2
;;      Params:         0       0       0       0       0
;;      Locals:         0       0       0       0       0
;;      Temps:          1       0       0       0       0
;;      Totals:         1       0       0       0       0
;;Total ram usage:        1 bytes
;; Hardware stack levels required when called:    1
;; This function calls:
;;		Nothing
;; This function is called by:
;;		Startup code after reset
;; This function uses a non-reentrant model
;;
psect	maintext,global,class=CODE,delta=2,split=1
	file	"C:\Users\ASUS\Downloads\Embedded\LE3-1.c"
	line	33
global __pmaintext
__pmaintext:	;psect for function _main
psect	maintext
	file	"C:\Users\ASUS\Downloads\Embedded\LE3-1.c"
	line	33
	global	__size_of_main
	__size_of_main	equ	__end_of_main-_main
	
_main:	
;incstack = 0
	opt	stack 7
; Regs used in _main: [wreg+status,2+status,0]
	line	35
	
l507:	
;LE3-1.c: 35: TRISB = 0xFF;
	movlw	(0FFh)
	bsf	status, 5	;RP0=1, select bank1
	bcf	status, 6	;RP1=0, select bank1
	movwf	(134)^080h	;volatile
	line	36
	
l509:	
;LE3-1.c: 36: TRISC = 0x00;
	clrf	(135)^080h	;volatile
	line	37
	
l511:	
;LE3-1.c: 37: PORTC = 0x00;
	bcf	status, 5	;RP0=0, select bank0
	bcf	status, 6	;RP1=0, select bank0
	clrf	(7)	;volatile
	line	41
;LE3-1.c: 41: OPTION_REG = 0xC4;
	movlw	(0C4h)
	bsf	status, 5	;RP0=1, select bank1
	bcf	status, 6	;RP1=0, select bank1
	movwf	(129)^080h	;volatile
	line	44
	
l513:	
;LE3-1.c: 44: INTF = 0;
	bcf	(89/8),(89)&7	;volatile
	line	45
	
l515:	
;LE3-1.c: 45: INTE = 1;
	bsf	(92/8),(92)&7	;volatile
	line	48
	
l517:	
;LE3-1.c: 48: T0IF = 0;
	bcf	(90/8),(90)&7	;volatile
	line	49
	
l519:	
;LE3-1.c: 49: T0IE = 1;
	bsf	(93/8),(93)&7	;volatile
	line	52
	
l521:	
;LE3-1.c: 52: GIE = 1;
	bsf	(95/8),(95)&7	;volatile
	line	55
;LE3-1.c: 55: while(1) {
	
l32:	
	line	57
;LE3-1.c: 57: if (counting_state == 1) {
	movf	(_counting_state),w
	xorlw	01h
	skipz
	goto	u31
	goto	u30
u31:
	goto	l32
u30:
	line	60
	
l523:	
;LE3-1.c: 60: if (timer_ticks >= 122) {
	movlw	(07Ah)
	subwf	(_timer_ticks),w
	skipc
	goto	u41
	goto	u40
u41:
	goto	l32
u40:
	line	61
	
l525:	
;LE3-1.c: 61: timer_ticks = 0;
	clrf	(_timer_ticks)
	line	63
	
l527:	
;LE3-1.c: 63: counter++;
	movlw	(01h)
	movwf	(??_main+0)+0
	movf	(??_main+0)+0,w
	addwf	(_counter),f
	line	66
	
l529:	
;LE3-1.c: 66: if (counter > 9) {
	movlw	(0Ah)
	subwf	(_counter),w
	skipc
	goto	u51
	goto	u50
u51:
	goto	l533
u50:
	line	67
	
l531:	
;LE3-1.c: 67: counter = 0;
	clrf	(_counter)
	goto	l533
	line	68
	
l35:	
	line	71
	
l533:	
;LE3-1.c: 68: }
;LE3-1.c: 71: PORTC = counter;
	movf	(_counter),w
	bcf	status, 5	;RP0=0, select bank0
	bcf	status, 6	;RP1=0, select bank0
	movwf	(7)	;volatile
	goto	l32
	line	72
	
l34:	
	goto	l32
	line	73
	
l33:	
	goto	l32
	line	74
	
l36:	
	line	55
	goto	l32
	
l37:	
	line	75
	
l38:	
	global	start
	ljmp	start
	opt stack 0
GLOBAL	__end_of_main
	__end_of_main:
	signat	_main,88
	global	_ISR

;; *************** function _ISR *****************
;; Defined at:
;;		line 18 in file "C:\Users\ASUS\Downloads\Embedded\LE3-1.c"
;; Parameters:    Size  Location     Type
;;		None
;; Auto vars:     Size  Location     Type
;;		None
;; Return value:  Size  Location     Type
;;		None               void
;; Registers used:
;;		wreg, status,2, status,0
;; Tracked objects:
;;		On entry : 0/0
;;		On exit  : 0/0
;;		Unchanged: 0/0
;; Data sizes:     COMMON   BANK0   BANK1   BANK3   BANK2
;;      Params:         0       0       0       0       0
;;      Locals:         0       0       0       0       0
;;      Temps:          5       0       0       0       0
;;      Totals:         5       0       0       0       0
;;Total ram usage:        5 bytes
;; Hardware stack levels used:    1
;; This function calls:
;;		Nothing
;; This function is called by:
;;		Interrupt level 1
;; This function uses a non-reentrant model
;;
psect	text1,local,class=CODE,delta=2,merge=1
	line	18
global __ptext1
__ptext1:	;psect for function _ISR
psect	text1
	file	"C:\Users\ASUS\Downloads\Embedded\LE3-1.c"
	line	18
	global	__size_of_ISR
	__size_of_ISR	equ	__end_of_ISR-_ISR
	
_ISR:	
;incstack = 0
	opt	stack 7
; Regs used in _ISR: [wreg+status,2+status,0]
psect	intentry,class=CODE,delta=2
global __pintentry
__pintentry:
global interrupt_function
interrupt_function:
	global saved_w
	saved_w	set	btemp+0
	movwf	saved_w
	swapf	status,w
	movwf	(??_ISR+1)
	movf	fsr0,w
	movwf	(??_ISR+2)
	movf	pclath,w
	movwf	(??_ISR+3)
	bcf	status, 5	;RP0=0, select bank0
	bcf	status, 6	;RP1=0, select bank0
	movf	btemp+1,w
	movwf	(??_ISR+4)
	ljmp	_ISR
psect	text1
	line	21
	
i1l495:	
;LE3-1.c: 21: if (INTF == 1) {
	btfss	(89/8),(89)&7	;volatile
	goto	u1_21
	goto	u1_20
u1_21:
	goto	i1l501
u1_20:
	line	22
	
i1l497:	
;LE3-1.c: 22: INTF = 0;
	bcf	(89/8),(89)&7	;volatile
	line	23
	
i1l499:	
;LE3-1.c: 23: counting_state ^= 1;
	movlw	(01h)
	movwf	(??_ISR+0)+0
	movf	(??_ISR+0)+0,w
	xorwf	(_counting_state),f
	goto	i1l501
	line	24
	
i1l27:	
	line	27
	
i1l501:	
;LE3-1.c: 24: }
;LE3-1.c: 27: if (T0IF == 1) {
	btfss	(90/8),(90)&7	;volatile
	goto	u2_21
	goto	u2_20
u2_21:
	goto	i1l29
u2_20:
	line	28
	
i1l503:	
;LE3-1.c: 28: T0IF = 0;
	bcf	(90/8),(90)&7	;volatile
	line	29
	
i1l505:	
;LE3-1.c: 29: timer_ticks++;
	movlw	(01h)
	movwf	(??_ISR+0)+0
	movf	(??_ISR+0)+0,w
	addwf	(_timer_ticks),f
	goto	i1l29
	line	30
	
i1l28:	
	line	31
	
i1l29:	
	movf	(??_ISR+4),w
	movwf	btemp+1
	movf	(??_ISR+3),w
	movwf	pclath
	movf	(??_ISR+2),w
	movwf	fsr0
	swapf	(??_ISR+1)^0FFFFFF80h,w
	movwf	status
	swapf	saved_w,f
	swapf	saved_w,w
	retfie
	opt stack 0
GLOBAL	__end_of_ISR
	__end_of_ISR:
	signat	_ISR,88
global	___latbits
___latbits	equ	2
	global	btemp
	btemp set 07Eh

	DABS	1,126,2	;btemp
	global	wtemp
	global	wtemp0
	wtemp set btemp
	wtemp0 set btemp
	global	wtemp1
	wtemp1 set btemp+2
	global	wtemp2
	wtemp2 set btemp+4
	global	wtemp3
	wtemp3 set btemp+6
	global	wtemp4
	wtemp4 set btemp+8
	global	wtemp5
	wtemp5 set btemp+10
	global	wtemp6
	wtemp6 set btemp+1
	global	ttemp
	global	ttemp0
	ttemp set btemp
	ttemp0 set btemp
	global	ttemp1
	ttemp1 set btemp+3
	global	ttemp2
	ttemp2 set btemp+6
	global	ttemp3
	ttemp3 set btemp+9
	global	ttemp4
	ttemp4 set btemp+1
	global	ltemp
	global	ltemp0
	ltemp set btemp
	ltemp0 set btemp
	global	ltemp1
	ltemp1 set btemp+4
	global	ltemp2
	ltemp2 set btemp+8
	global	ltemp3
	ltemp3 set btemp+2
	end
